; Function Attrs: nounwind uwtable
define void @glfwSetCursorPos(ptr noundef %0, double noundef %1, double noundef %2) local_unnamed_addr #0 {
  %4 = load i32, ptr @_glfw, align 8, !tbaa !170
  %.not = icmp eq i32 %4, 0
  br i1 %.not, label %5, label %6

5:                                                ; preds = %3
  tail call void (i32, ptr, ...) @_glfwInputError(i32 noundef 65537, ptr noundef null) #12
  br label %27

6:                                                ; preds = %3
  %7 = fcmp uno double %1, 0.000000e+00
  %8 = tail call double @llvm.fabs.f64(double %1)
  %9 = fcmp ogt double %8, 0x7FEFFFFFFFFFFFFF
  %or.cond3 = or i1 %7, %9
  br i1 %or.cond3, label %14, label %10

10:                                               ; preds = %6
  %11 = fcmp uno double %2, 0.000000e+00
  %12 = tail call double @llvm.fabs.f64(double %2)
  %13 = fcmp ogt double %12, 0x7FEFFFFFFFFFFFFF
  %or.cond7 = or i1 %11, %13
  br i1 %or.cond7, label %14, label %15

14:                                               ; preds = %10, %6
  tail call void (i32, ptr, ...) @_glfwInputError(i32 noundef 65540, ptr noundef nonnull @.str.400, double noundef %1, double noundef %2) #12
  br label %27

15:                                               ; preds = %10
  %16 = load ptr, ptr getelementptr inbounds nuw (i8, ptr @_glfw, i64 440), align 8, !tbaa !180
  %17 = tail call i32 %16(ptr noundef %0) #12
  %.not28 = icmp eq i32 %17, 0
  br i1 %.not28, label %27, label %18

18:                                               ; preds = %15
  %19 = getelementptr inbounds nuw i8, ptr %0, i64 140
  %20 = load i32, ptr %19, align 4, !tbaa !171
  %21 = icmp eq i32 %20, 212995
  br i1 %21, label %22, label %25

22:                                               ; preds = %18
  %23 = getelementptr inbounds nuw i8, ptr %0, i64 504
  store double %1, ptr %23, align 8, !tbaa !58
  %24 = getelementptr inbounds nuw i8, ptr %0, i64 512
  store double %2, ptr %24, align 8, !tbaa !59
  br label %27

25:                                               ; preds = %18
  %26 = load ptr, ptr getelementptr inbounds nuw (i8, ptr @_glfw, i64 72), align 8, !tbaa !168
  tail call void %26(ptr noundef nonnull %0, double noundef %1, double noundef %2) #12
  br label %27

27:                                               ; preds = %22, %25, %15, %14, %5
  ret void
}